target datalayout = "e-m:e-p270:32:32-p271:32:32-p272:64:64-i64:64-i128:128-f80:128-n8:16:32:64-S128"
target triple = "x86_64-pc-linux-gnu"

@last_open_dir = internal global ptr null, align 8
@.str.13 = private unnamed_addr constant [2 x i8] c"/\00", align 1

; Function Attrs: null_pointer_is_valid sspstrong uwtable
define hidden void @set_last_open_dir(ptr noundef %0) #0 {
  %2 = alloca ptr, align 8
  %3 = alloca i64, align 8
  %4 = alloca ptr, align 8
  store ptr %0, ptr %2, align 8
  call void @llvm.lifetime.start.p0(i64 8, ptr %3) #10
  call void @llvm.lifetime.start.p0(i64 8, ptr %4) #10
  %5 = load ptr, ptr %2, align 8
  %6 = icmp ne ptr %5, null
  br i1 %6, label %7, label %30

7:                                                ; preds = %1
  %8 = load ptr, ptr %2, align 8
  %9 = getelementptr i8, ptr %8, i64 0
  %10 = load i8, ptr %9, align 1
  %11 = sext i8 %10 to i32
  %12 = icmp ne i32 %11, 0
  br i1 %12, label %13, label %30

13:                                               ; preds = %7
  %14 = load ptr, ptr %2, align 8
  %15 = call i64 @strlen(ptr noundef %14) #11
  store i64 %15, ptr %3, align 8
  %16 = load ptr, ptr %2, align 8
  %17 = load i64, ptr %3, align 8
  %18 = sub i64 %17, 1
  %19 = getelementptr i8, ptr %16, i64 %18
  %20 = load i8, ptr %19, align 1
  %21 = sext i8 %20 to i32
  %22 = icmp eq i32 %21, 47
  br i1 %22, label %23, label %26

23:                                               ; preds = %13
  %24 = load ptr, ptr %2, align 8
  %25 = call noalias ptr (ptr, ...) @g_strconcat(ptr noundef %24, ptr noundef null)
  store ptr %25, ptr %4, align 8
  br label %29

26:                                               ; preds = %13
  %27 = load ptr, ptr %2, align 8
  %28 = call noalias ptr (ptr, ...) @g_strconcat(ptr noundef %27, ptr noundef @.str.13, ptr noundef null)
  store ptr %28, ptr %4, align 8
  br label %29

29:                                               ; preds = %26, %23
  br label %31

30:                                               ; preds = %7, %1
  store ptr null, ptr %4, align 8
  br label %31

31:                                               ; preds = %30, %29
  %32 = load ptr, ptr @last_open_dir, align 8
  call void @g_free(ptr noundef %32)
  %33 = load ptr, ptr %4, align 8
  store ptr %33, ptr @last_open_dir, align 8
  call void @llvm.lifetime.end.p0(i64 8, ptr %4) #10
  call void @llvm.lifetime.end.p0(i64 8, ptr %3) #10
  ret void
}