; Function Attrs: null_pointer_is_valid sspstrong uwtable
define hidden void @set_last_open_dir(ptr noundef %0) local_unnamed_addr #0 {
  %.not = icmp eq ptr %0, null
  br i1 %.not, label %14, label %2

2:                                                ; preds = %1
  %3 = load i8, ptr %0, align 1
  %.not8 = icmp eq i8 %3, 0
  br i1 %.not8, label %14, label %4

4:                                                ; preds = %2
  %5 = tail call i64 @strlen(ptr noundef nonnull dereferenceable(1) %0) #10
  %6 = getelementptr i8, ptr %0, i64 %5
  %7 = getelementptr i8, ptr %6, i64 -1
  %8 = load i8, ptr %7, align 1
  %9 = icmp eq i8 %8, 47
  br i1 %9, label %10, label %12

10:                                               ; preds = %4
  %11 = tail call noalias ptr (ptr, ...) @g_strconcat(ptr noundef nonnull %0, ptr noundef null)
  br label %14

12:                                               ; preds = %4
  %13 = tail call noalias ptr (ptr, ...) @g_strconcat(ptr noundef nonnull %0, ptr noundef nonnull @.str.13, ptr noundef null)
  br label %14

14:                                               ; preds = %1, %2, %10, %12
  %.0 = phi ptr [ %11, %10 ], [ %13, %12 ], [ null, %2 ], [ null, %1 ]
  %15 = load ptr, ptr @last_open_dir, align 8
  tail call void @g_free(ptr noundef %15)
  store ptr %.0, ptr @last_open_dir, align 8
  ret void
}